target datalayout = "e-m:e-p270:32:32-p271:32:32-p272:64:64-i64:64-i128:128-f80:128-n8:16:32:64-S128"
target triple = "x86_64-pc-linux-gnu"

%class.XMMRegister = type { i32 }
%class.MachNode = type { %class.Node.base, i8, i16, ptr }
%class.Node.base = type <{ ptr, ptr, ptr, i32, i32, i32, i32, i32, i32, i32 }>
%class.MachTypeNode = type { %class.MachNode, ptr }
%class.minmax_reduction2F_avNode = type { %class.MachTypeNode, [8 x ptr] }

@_ZL6xnoreg = internal constant %class.XMMRegister { i32 -1 }, align 4

; Function Attrs: mustprogress nounwind uwtable
define linkonce_odr hidden void @_ZN11XMMRegisterC2Eib(ptr noundef nonnull align 4 dereferenceable(4) %0, i32 noundef %1, i1 noundef zeroext %2) unnamed_addr #1 comdat align 2 {
  %4 = alloca ptr, align 8
  %5 = alloca i32, align 4
  %6 = alloca i8, align 1
  store ptr %0, ptr %4, align 8
  store i32 %1, ptr %5, align 4
  %7 = zext i1 %2 to i8
  store i8 %7, ptr %6, align 1
  %8 = load ptr, ptr %4, align 8
  %9 = getelementptr inbounds %class.XMMRegister, ptr %8, i32 0, i32 0
  %10 = load i32, ptr %5, align 4
  store i32 %10, ptr %9, align 4
  ret void
}

; Function Attrs: mustprogress nounwind uwtable
define linkonce_odr hidden i32 @_Z14as_XMMRegisteri(i32 noundef %0) #1 comdat {
  %2 = alloca %class.XMMRegister, align 4
  %3 = alloca i32, align 4
  store i32 %0, ptr %3, align 4
  %4 = load i32, ptr %3, align 4
  %5 = icmp sle i32 0, %4
  br i1 %5, label %6, label %11

6:                                                ; preds = %1
  %7 = load i32, ptr %3, align 4
  %8 = icmp slt i32 %7, 32
  br i1 %8, label %9, label %11

9:                                                ; preds = %6
  %10 = load i32, ptr %3, align 4
  call void @_ZN11XMMRegisterC2Eib(ptr noundef nonnull align 4 dereferenceable(4) %2, i32 noundef %10, i1 noundef zeroext false)
  br label %12

11:                                               ; preds = %6, %1
  call void @llvm.memcpy.p0.p0.i64(ptr align 4 %2, ptr align 4 @_ZL6xnoreg, i64 4, i1 false)
  br label %12

12:                                               ; preds = %11, %9
  %13 = getelementptr inbounds %class.XMMRegister, ptr %2, i32 0, i32 0
  %14 = load i32, ptr %13, align 4
  ret i32 %14
}

; Function Attrs: mustprogress nounwind uwtable
define linkonce_odr hidden i32 @_ZNK8MachOper14as_XMMRegisterEP13PhaseRegAllocPK4Nodei(ptr noundef nonnull align 8 dereferenceable(8) %0, ptr noundef %1, ptr noundef %2, i32 noundef %3) #1 comdat align 2 {
  %5 = alloca %class.XMMRegister, align 4
  %6 = alloca ptr, align 8
  %7 = alloca ptr, align 8
  %8 = alloca ptr, align 8
  %9 = alloca i32, align 4
  store ptr %0, ptr %6, align 8
  store ptr %1, ptr %7, align 8
  store ptr %2, ptr %8, align 8
  store i32 %3, ptr %9, align 4
  %10 = load ptr, ptr %6, align 8
  %11 = load ptr, ptr %7, align 8
  %12 = load ptr, ptr %8, align 8
  %13 = load i32, ptr %9, align 4
  %14 = load ptr, ptr %10, align 8
  %15 = getelementptr inbounds ptr, ptr %14, i64 5
  %16 = load ptr, ptr %15, align 8
  %17 = call noundef i32 %16(ptr noundef nonnull align 8 dereferenceable(8) %10, ptr noundef %11, ptr noundef %12, i32 noundef %13)
  %18 = call i32 @_Z14as_XMMRegisteri(i32 noundef %17)
  %19 = getelementptr inbounds %class.XMMRegister, ptr %5, i32 0, i32 0
  store i32 %18, ptr %19, align 4
  %20 = getelementptr inbounds %class.XMMRegister, ptr %5, i32 0, i32 0
  %21 = load i32, ptr %20, align 4
  ret i32 %21
}

; Function Attrs: mustprogress nounwind uwtable
define linkonce_odr hidden noundef ptr @_ZNK25minmax_reduction2F_avNode10opnd_arrayEj(ptr noundef nonnull align 8 dereferenceable(136) %0, i32 noundef %1) #1 comdat align 2 {
  %3 = alloca ptr, align 8
  %4 = alloca i32, align 4
  store ptr %0, ptr %3, align 8
  store i32 %1, ptr %4, align 4
  %5 = load ptr, ptr %3, align 8
  %6 = getelementptr inbounds %class.minmax_reduction2F_avNode, ptr %5, i32 0, i32 1
  %7 = load i32, ptr %4, align 4
  %8 = zext i32 %7 to i64
  %9 = getelementptr inbounds [8 x ptr], ptr %6, i64 0, i64 %8
  %10 = load ptr, ptr %9, align 8
  ret ptr %10
}

; Function Attrs: mustprogress nounwind uwtable
define hidden void @_ZNK25minmax_reduction2F_avNode4emitEP17C2_MacroAssemblerP13PhaseRegAlloc(ptr noundef nonnull align 8 dereferenceable(136) %0, ptr noundef %1, ptr noundef %2) unnamed_addr #1 align 2 {
  %4 = alloca ptr, align 8
  %5 = alloca ptr, align 8
  %6 = alloca ptr, align 8
  %7 = alloca i32, align 4
  %8 = alloca i32, align 4
  %9 = alloca i32, align 4
  %10 = alloca i32, align 4
  %11 = alloca i32, align 4
  %12 = alloca i32, align 4
  %13 = alloca i32, align 4
  %14 = alloca i32, align 4
  %15 = alloca i32, align 4
  %16 = alloca %class.XMMRegister, align 4
  %17 = alloca %class.XMMRegister, align 4
  %18 = alloca %class.XMMRegister, align 4
  %19 = alloca %class.XMMRegister, align 4
  %20 = alloca %class.XMMRegister, align 4
  %21 = alloca %class.XMMRegister, align 4
  %22 = alloca %class.XMMRegister, align 4
  store ptr %0, ptr %4, align 8
  store ptr %1, ptr %5, align 8
  store ptr %2, ptr %6, align 8
  %23 = load ptr, ptr %4, align 8
  store i32 1, ptr %7, align 4
  store i32 1, ptr %8, align 4
  %24 = load i32, ptr %8, align 4
  %25 = call noundef ptr @_ZNK25minmax_reduction2F_avNode10opnd_arrayEj(ptr noundef nonnull align 8 dereferenceable(136) %23, i32 noundef 1)
  %26 = load ptr, ptr %25, align 8
  %27 = getelementptr inbounds ptr, ptr %26, i64 1
  %28 = load ptr, ptr %27, align 8
  %29 = call noundef i32 %28(ptr noundef nonnull align 8 dereferenceable(8) %25)
  %30 = add i32 %24, %29
  store i32 %30, ptr %9, align 4
  %31 = load i32, ptr %9, align 4
  %32 = call noundef ptr @_ZNK25minmax_reduction2F_avNode10opnd_arrayEj(ptr noundef nonnull align 8 dereferenceable(136) %23, i32 noundef 2)
  %33 = load ptr, ptr %32, align 8
  %34 = getelementptr inbounds ptr, ptr %33, i64 1
  %35 = load ptr, ptr %34, align 8
  %36 = call noundef i32 %35(ptr noundef nonnull align 8 dereferenceable(8) %32)
  %37 = add i32 %31, %36
  store i32 %37, ptr %10, align 4
  %38 = load i32, ptr %10, align 4
  %39 = call noundef ptr @_ZNK25minmax_reduction2F_avNode10opnd_arrayEj(ptr noundef nonnull align 8 dereferenceable(136) %23, i32 noundef 3)
  %40 = load ptr, ptr %39, align 8
  %41 = getelementptr inbounds ptr, ptr %40, i64 1
  %42 = load ptr, ptr %41, align 8
  %43 = call noundef i32 %42(ptr noundef nonnull align 8 dereferenceable(8) %39)
  %44 = add i32 %38, %43
  store i32 %44, ptr %11, align 4
  %45 = load i32, ptr %11, align 4
  %46 = call noundef ptr @_ZNK25minmax_reduction2F_avNode10opnd_arrayEj(ptr noundef nonnull align 8 dereferenceable(136) %23, i32 noundef 4)
  %47 = load ptr, ptr %46, align 8
  %48 = getelementptr inbounds ptr, ptr %47, i64 1
  %49 = load ptr, ptr %48, align 8
  %50 = call noundef i32 %49(ptr noundef nonnull align 8 dereferenceable(8) %46)
  %51 = add i32 %45, %50
  store i32 %51, ptr %12, align 4
  %52 = load i32, ptr %12, align 4
  %53 = call noundef ptr @_ZNK25minmax_reduction2F_avNode10opnd_arrayEj(ptr noundef nonnull align 8 dereferenceable(136) %23, i32 noundef 5)
  %54 = load ptr, ptr %53, align 8
  %55 = getelementptr inbounds ptr, ptr %54, i64 1
  %56 = load ptr, ptr %55, align 8
  %57 = call noundef i32 %56(ptr noundef nonnull align 8 dereferenceable(8) %53)
  %58 = add i32 %52, %57
  store i32 %58, ptr %13, align 4
  %59 = load ptr, ptr %23, align 8
  %60 = getelementptr inbounds ptr, ptr %59, i64 41
  %61 = load ptr, ptr %60, align 8
  %62 = call noundef i32 %61(ptr noundef nonnull align 8 dereferenceable(136) %23)
  store i32 %62, ptr %14, align 4
  %63 = call noundef ptr @_ZNK25minmax_reduction2F_avNode10opnd_arrayEj(ptr noundef nonnull align 8 dereferenceable(136) %23, i32 noundef 2)
  %64 = call noundef i32 @_ZN7Matcher13vector_lengthEPK8MachNodePK8MachOper(ptr noundef %23, ptr noundef %63)
  store i32 %64, ptr %15, align 4
  %65 = load ptr, ptr %5, align 8
  %66 = load i32, ptr %14, align 4
  %67 = load i32, ptr %15, align 4
  %68 = call noundef ptr @_ZNK25minmax_reduction2F_avNode10opnd_arrayEj(ptr noundef nonnull align 8 dereferenceable(136) %23, i32 noundef 1)
  %69 = load ptr, ptr %6, align 8
  %70 = load i32, ptr %8, align 4
  %71 = call i32 @_ZNK8MachOper14as_XMMRegisterEP13PhaseRegAllocPK4Nodei(ptr noundef nonnull align 8 dereferenceable(8) %68, ptr noundef %69, ptr noundef %23, i32 noundef %70)
  %72 = getelementptr inbounds %class.XMMRegister, ptr %16, i32 0, i32 0
  store i32 %71, ptr %72, align 4
  %73 = call noundef ptr @_ZNK25minmax_reduction2F_avNode10opnd_arrayEj(ptr noundef nonnull align 8 dereferenceable(136) %23, i32 noundef 2)
  %74 = load ptr, ptr %6, align 8
  %75 = load i32, ptr %9, align 4
  %76 = call i32 @_ZNK8MachOper14as_XMMRegisterEP13PhaseRegAllocPK4Nodei(ptr noundef nonnull align 8 dereferenceable(8) %73, ptr noundef %74, ptr noundef %23, i32 noundef %75)
  %77 = getelementptr inbounds %class.XMMRegister, ptr %17, i32 0, i32 0
  store i32 %76, ptr %77, align 4
  %78 = call noundef ptr @_ZNK25minmax_reduction2F_avNode10opnd_arrayEj(ptr noundef nonnull align 8 dereferenceable(136) %23, i32 noundef 3)
  %79 = load ptr, ptr %6, align 8
  %80 = load i32, ptr %10, align 4
  %81 = call i32 @_ZNK8MachOper14as_XMMRegisterEP13PhaseRegAllocPK4Nodei(ptr noundef nonnull align 8 dereferenceable(8) %78, ptr noundef %79, ptr noundef %23, i32 noundef %80)
  %82 = getelementptr inbounds %class.XMMRegister, ptr %18, i32 0, i32 0
  store i32 %81, ptr %82, align 4
  %83 = call noundef ptr @_ZNK25minmax_reduction2F_avNode10opnd_arrayEj(ptr noundef nonnull align 8 dereferenceable(136) %23, i32 noundef 4)
  %84 = load ptr, ptr %6, align 8
  %85 = load i32, ptr %11, align 4
  %86 = call i32 @_ZNK8MachOper14as_XMMRegisterEP13PhaseRegAllocPK4Nodei(ptr noundef nonnull align 8 dereferenceable(8) %83, ptr noundef %84, ptr noundef %23, i32 noundef %85)
  %87 = getelementptr inbounds %class.XMMRegister, ptr %19, i32 0, i32 0
  store i32 %86, ptr %87, align 4
  %88 = call noundef ptr @_ZNK25minmax_reduction2F_avNode10opnd_arrayEj(ptr noundef nonnull align 8 dereferenceable(136) %23, i32 noundef 5)
  %89 = load ptr, ptr %6, align 8
  %90 = load i32, ptr %12, align 4
  %91 = call i32 @_ZNK8MachOper14as_XMMRegisterEP13PhaseRegAllocPK4Nodei(ptr noundef nonnull align 8 dereferenceable(8) %88, ptr noundef %89, ptr noundef %23, i32 noundef %90)
  %92 = getelementptr inbounds %class.XMMRegister, ptr %20, i32 0, i32 0
  store i32 %91, ptr %92, align 4
  %93 = call noundef ptr @_ZNK25minmax_reduction2F_avNode10opnd_arrayEj(ptr noundef nonnull align 8 dereferenceable(136) %23, i32 noundef 6)
  %94 = load ptr, ptr %6, align 8
  %95 = load i32, ptr %13, align 4
  %96 = call i32 @_ZNK8MachOper14as_XMMRegisterEP13PhaseRegAllocPK4Nodei(ptr noundef nonnull align 8 dereferenceable(8) %93, ptr noundef %94, ptr noundef %23, i32 noundef %95)
  %97 = getelementptr inbounds %class.XMMRegister, ptr %21, i32 0, i32 0
  store i32 %96, ptr %97, align 4
  call void @llvm.memcpy.p0.p0.i64(ptr align 4 %22, ptr align 4 @_ZL6xnoreg, i64 4, i1 false)
  %98 = getelementptr inbounds %class.XMMRegister, ptr %16, i32 0, i32 0
  %99 = load i32, ptr %98, align 4
  %100 = getelementptr inbounds %class.XMMRegister, ptr %17, i32 0, i32 0
  %101 = load i32, ptr %100, align 4
  %102 = getelementptr inbounds %class.XMMRegister, ptr %18, i32 0, i32 0
  %103 = load i32, ptr %102, align 4
  %104 = getelementptr inbounds %class.XMMRegister, ptr %19, i32 0, i32 0
  %105 = load i32, ptr %104, align 4
  %106 = getelementptr inbounds %class.XMMRegister, ptr %20, i32 0, i32 0
  %107 = load i32, ptr %106, align 4
  %108 = getelementptr inbounds %class.XMMRegister, ptr %21, i32 0, i32 0
  %109 = load i32, ptr %108, align 4
  %110 = getelementptr inbounds %class.XMMRegister, ptr %22, i32 0, i32 0
  %111 = load i32, ptr %110, align 4
  call void @_ZN17C2_MacroAssembler17reduceFloatMinMaxEiib11XMMRegisterS0_S0_S0_S0_S0_S0_(ptr noundef nonnull align 8 dereferenceable(40) %65, i32 noundef %66, i32 noundef %67, i1 noundef zeroext true, i32 %99, i32 %101, i32 %103, i32 %105, i32 %107, i32 %109, i32 %111)
  ret void
}