; Function Attrs: mustprogress nounwind uwtable
define hidden void @_ZNK25minmax_reduction2F_avNode4emitEP17C2_MacroAssemblerP13PhaseRegAlloc(ptr noundef nonnull align 8 dereferenceable(136) %0, ptr noundef %1, ptr noundef %2) unnamed_addr #3 align 2 {
  %4 = getelementptr inbounds i8, ptr %0, i64 80
  %5 = load ptr, ptr %4, align 8
  %6 = load ptr, ptr %5, align 8
  %7 = getelementptr inbounds i8, ptr %6, i64 8
  %8 = load ptr, ptr %7, align 8
  %9 = tail call noundef i32 %8(ptr noundef nonnull align 8 dereferenceable(8) %5) #23
  %10 = add i32 %9, 1
  %11 = getelementptr inbounds i8, ptr %0, i64 88
  %12 = load ptr, ptr %11, align 8
  %13 = load ptr, ptr %12, align 8
  %14 = getelementptr inbounds i8, ptr %13, i64 8
  %15 = load ptr, ptr %14, align 8
  %16 = tail call noundef i32 %15(ptr noundef nonnull align 8 dereferenceable(8) %12) #23
  %17 = add i32 %16, %10
  %18 = getelementptr inbounds i8, ptr %0, i64 96
  %19 = load ptr, ptr %18, align 8
  %20 = load ptr, ptr %19, align 8
  %21 = getelementptr inbounds i8, ptr %20, i64 8
  %22 = load ptr, ptr %21, align 8
  %23 = tail call noundef i32 %22(ptr noundef nonnull align 8 dereferenceable(8) %19) #23
  %24 = add i32 %23, %17
  %25 = getelementptr inbounds i8, ptr %0, i64 104
  %26 = load ptr, ptr %25, align 8
  %27 = load ptr, ptr %26, align 8
  %28 = getelementptr inbounds i8, ptr %27, i64 8
  %29 = load ptr, ptr %28, align 8
  %30 = tail call noundef i32 %29(ptr noundef nonnull align 8 dereferenceable(8) %26) #23
  %31 = add i32 %30, %24
  %32 = getelementptr inbounds i8, ptr %0, i64 112
  %33 = load ptr, ptr %32, align 8
  %34 = load ptr, ptr %33, align 8
  %35 = getelementptr inbounds i8, ptr %34, i64 8
  %36 = load ptr, ptr %35, align 8
  %37 = tail call noundef i32 %36(ptr noundef nonnull align 8 dereferenceable(8) %33) #23
  %38 = add i32 %37, %31
  %39 = load ptr, ptr %0, align 8
  %40 = getelementptr inbounds i8, ptr %39, i64 328
  %41 = load ptr, ptr %40, align 8
  %42 = tail call noundef i32 %41(ptr noundef nonnull align 8 dereferenceable(136) %0) #23
  %43 = load ptr, ptr %11, align 8
  %44 = tail call noundef i32 @_ZN7Matcher13vector_lengthEPK8MachNodePK8MachOper(ptr noundef nonnull %0, ptr noundef %43) #23
  %45 = load ptr, ptr %4, align 8
  %46 = load ptr, ptr %45, align 8
  %47 = getelementptr inbounds i8, ptr %46, i64 40
  %48 = load ptr, ptr %47, align 8
  %49 = tail call noundef i32 %48(ptr noundef nonnull align 8 dereferenceable(8) %45, ptr noundef %2, ptr noundef nonnull %0, i32 noundef 1) #23
  %or.cond.i.i = icmp ult i32 %49, 32
  %spec.select.i.i = select i1 %or.cond.i.i, i32 %49, i32 -1
  %50 = load ptr, ptr %11, align 8
  %51 = load ptr, ptr %50, align 8
  %52 = getelementptr inbounds i8, ptr %51, i64 40
  %53 = load ptr, ptr %52, align 8
  %54 = tail call noundef i32 %53(ptr noundef nonnull align 8 dereferenceable(8) %50, ptr noundef %2, ptr noundef nonnull %0, i32 noundef %10) #23
  %or.cond.i.i26 = icmp ult i32 %54, 32
  %spec.select.i.i27 = select i1 %or.cond.i.i26, i32 %54, i32 -1
  %55 = load ptr, ptr %18, align 8
  %56 = load ptr, ptr %55, align 8
  %57 = getelementptr inbounds i8, ptr %56, i64 40
  %58 = load ptr, ptr %57, align 8
  %59 = tail call noundef i32 %58(ptr noundef nonnull align 8 dereferenceable(8) %55, ptr noundef %2, ptr noundef nonnull %0, i32 noundef %17) #23
  %or.cond.i.i28 = icmp ult i32 %59, 32
  %spec.select.i.i29 = select i1 %or.cond.i.i28, i32 %59, i32 -1
  %60 = load ptr, ptr %25, align 8
  %61 = load ptr, ptr %60, align 8
  %62 = getelementptr inbounds i8, ptr %61, i64 40
  %63 = load ptr, ptr %62, align 8
  %64 = tail call noundef i32 %63(ptr noundef nonnull align 8 dereferenceable(8) %60, ptr noundef %2, ptr noundef nonnull %0, i32 noundef %24) #23
  %or.cond.i.i30 = icmp ult i32 %64, 32
  %spec.select.i.i31 = select i1 %or.cond.i.i30, i32 %64, i32 -1
  %65 = load ptr, ptr %32, align 8
  %66 = load ptr, ptr %65, align 8
  %67 = getelementptr inbounds i8, ptr %66, i64 40
  %68 = load ptr, ptr %67, align 8
  %69 = tail call noundef i32 %68(ptr noundef nonnull align 8 dereferenceable(8) %65, ptr noundef %2, ptr noundef nonnull %0, i32 noundef %31) #23
  %or.cond.i.i32 = icmp ult i32 %69, 32
  %spec.select.i.i33 = select i1 %or.cond.i.i32, i32 %69, i32 -1
  %70 = getelementptr inbounds i8, ptr %0, i64 120
  %71 = load ptr, ptr %70, align 8
  %72 = load ptr, ptr %71, align 8
  %73 = getelementptr inbounds i8, ptr %72, i64 40
  %74 = load ptr, ptr %73, align 8
  %75 = tail call noundef i32 %74(ptr noundef nonnull align 8 dereferenceable(8) %71, ptr noundef %2, ptr noundef nonnull %0, i32 noundef %38) #23
  %or.cond.i.i34 = icmp ult i32 %75, 32
  %spec.select.i.i35 = select i1 %or.cond.i.i34, i32 %75, i32 -1
  tail call void @_ZN17C2_MacroAssembler17reduceFloatMinMaxEiib11XMMRegisterS0_S0_S0_S0_S0_S0_(ptr noundef nonnull align 8 dereferenceable(40) %1, i32 noundef %42, i32 noundef %44, i1 noundef zeroext true, i32 %spec.select.i.i, i32 %spec.select.i.i27, i32 %spec.select.i.i29, i32 %spec.select.i.i31, i32 %spec.select.i.i33, i32 %spec.select.i.i35, i32 -1) #23
  ret void
}